target datalayout = "e-m:e-p270:32:32-p271:32:32-p272:64:64-i64:64-i128:128-f80:128-n8:16:32:64-S128"
target triple = "x86_64-pc-linux-gnu"

%struct.pathspec_item = type { ptr, ptr, i32, i32, i32, i32, i32, i32, ptr, ptr }
%struct.pathspec = type { i32, i8, i32, i32, ptr }

@.str = private unnamed_addr constant [6 x i8] c"dir.c\00", align 1
@.str.30 = private unnamed_addr constant [21 x i8] c"unsupported magic %x\00", align 1

; Function Attrs: nounwind uwtable
define internal i64 @common_prefix_len(ptr noundef %0) #0 {
  %2 = alloca ptr, align 8
  %3 = alloca i32, align 4
  %4 = alloca i64, align 8
  %5 = alloca i64, align 8
  %6 = alloca i64, align 8
  %7 = alloca i64, align 8
  %8 = alloca i32, align 4
  %9 = alloca i8, align 1
  store ptr %0, ptr %2, align 8, !tbaa !28
  call void @llvm.lifetime.start.p0(i64 4, ptr %3) #12
  call void @llvm.lifetime.start.p0(i64 8, ptr %4) #12
  store i64 0, ptr %4, align 8, !tbaa !19
  br label %10

10:                                               ; preds = %1
  %11 = load ptr, ptr %2, align 8, !tbaa !28
  %12 = getelementptr inbounds nuw %struct.pathspec, ptr %11, i32 0, i32 2
  %13 = load i32, ptr %12, align 8, !tbaa !33
  %14 = and i32 %13, -128
  %15 = icmp ne i32 %14, 0
  br i1 %15, label %16, label %21

16:                                               ; preds = %10
  %17 = load ptr, ptr %2, align 8, !tbaa !28
  %18 = getelementptr inbounds nuw %struct.pathspec, ptr %17, i32 0, i32 2
  %19 = load i32, ptr %18, align 8, !tbaa !33
  %20 = and i32 %19, -128
  call void (ptr, i32, ptr, ...) @BUG_fl(ptr noundef @.str, i32 noundef 207, ptr noundef @.str.30, i32 noundef %20) #14
  unreachable

21:                                               ; preds = %10
  br label %22

22:                                               ; preds = %21
  br label %23

23:                                               ; preds = %22
  store i32 0, ptr %3, align 4, !tbaa !16
  br label %24

24:                                               ; preds = %145, %23
  %25 = load i32, ptr %3, align 4, !tbaa !16
  %26 = load ptr, ptr %2, align 8, !tbaa !28
  %27 = getelementptr inbounds nuw %struct.pathspec, ptr %26, i32 0, i32 0
  %28 = load i32, ptr %27, align 8, !tbaa !34
  %29 = icmp slt i32 %25, %28
  br i1 %29, label %30, label %148

30:                                               ; preds = %24
  call void @llvm.lifetime.start.p0(i64 8, ptr %5) #12
  store i64 0, ptr %5, align 8, !tbaa !19
  call void @llvm.lifetime.start.p0(i64 8, ptr %6) #12
  store i64 0, ptr %6, align 8, !tbaa !19
  call void @llvm.lifetime.start.p0(i64 8, ptr %7) #12
  %31 = load ptr, ptr %2, align 8, !tbaa !28
  %32 = getelementptr inbounds nuw %struct.pathspec, ptr %31, i32 0, i32 4
  %33 = load ptr, ptr %32, align 8, !tbaa !30
  %34 = load i32, ptr %3, align 4, !tbaa !16
  %35 = sext i32 %34 to i64
  %36 = getelementptr inbounds %struct.pathspec_item, ptr %33, i64 %35
  %37 = getelementptr inbounds nuw %struct.pathspec_item, ptr %36, i32 0, i32 2
  %38 = load i32, ptr %37, align 8, !tbaa !27
  %39 = and i32 %38, 32
  %40 = icmp ne i32 %39, 0
  br i1 %40, label %41, label %42

41:                                               ; preds = %30
  store i32 6, ptr %8, align 4
  br label %142

42:                                               ; preds = %30
  %43 = load ptr, ptr %2, align 8, !tbaa !28
  %44 = getelementptr inbounds nuw %struct.pathspec, ptr %43, i32 0, i32 4
  %45 = load ptr, ptr %44, align 8, !tbaa !30
  %46 = load i32, ptr %3, align 4, !tbaa !16
  %47 = sext i32 %46 to i64
  %48 = getelementptr inbounds %struct.pathspec_item, ptr %45, i64 %47
  %49 = getelementptr inbounds nuw %struct.pathspec_item, ptr %48, i32 0, i32 2
  %50 = load i32, ptr %49, align 8, !tbaa !27
  %51 = and i32 %50, 16
  %52 = icmp ne i32 %51, 0
  br i1 %52, label %53, label %63

53:                                               ; preds = %42
  %54 = load ptr, ptr %2, align 8, !tbaa !28
  %55 = getelementptr inbounds nuw %struct.pathspec, ptr %54, i32 0, i32 4
  %56 = load ptr, ptr %55, align 8, !tbaa !30
  %57 = load i32, ptr %3, align 4, !tbaa !16
  %58 = sext i32 %57 to i64
  %59 = getelementptr inbounds %struct.pathspec_item, ptr %56, i64 %58
  %60 = getelementptr inbounds nuw %struct.pathspec_item, ptr %59, i32 0, i32 4
  %61 = load i32, ptr %60, align 8, !tbaa !35
  %62 = sext i32 %61 to i64
  store i64 %62, ptr %7, align 8, !tbaa !19
  br label %73

63:                                               ; preds = %42
  %64 = load ptr, ptr %2, align 8, !tbaa !28
  %65 = getelementptr inbounds nuw %struct.pathspec, ptr %64, i32 0, i32 4
  %66 = load ptr, ptr %65, align 8, !tbaa !30
  %67 = load i32, ptr %3, align 4, !tbaa !16
  %68 = sext i32 %67 to i64
  %69 = getelementptr inbounds %struct.pathspec_item, ptr %66, i64 %68
  %70 = getelementptr inbounds nuw %struct.pathspec_item, ptr %69, i32 0, i32 5
  %71 = load i32, ptr %70, align 4, !tbaa !36
  %72 = sext i32 %71 to i64
  store i64 %72, ptr %7, align 8, !tbaa !19
  br label %73

73:                                               ; preds = %63, %53
  br label %74

74:                                               ; preds = %127, %73
  %75 = load i64, ptr %5, align 8, !tbaa !19
  %76 = load i64, ptr %7, align 8, !tbaa !19
  %77 = icmp ult i64 %75, %76
  br i1 %77, label %78, label %87

78:                                               ; preds = %74
  %79 = load i32, ptr %3, align 4, !tbaa !16
  %80 = icmp eq i32 %79, 0
  br i1 %80, label %85, label %81

81:                                               ; preds = %78
  %82 = load i64, ptr %5, align 8, !tbaa !19
  %83 = load i64, ptr %4, align 8, !tbaa !19
  %84 = icmp ult i64 %82, %83
  br label %85

85:                                               ; preds = %81, %78
  %86 = phi i1 [ true, %78 ], [ %84, %81 ]
  br label %87

87:                                               ; preds = %85, %74
  %88 = phi i1 [ false, %74 ], [ %86, %85 ]
  br i1 %88, label %89, label %128

89:                                               ; preds = %87
  call void @llvm.lifetime.start.p0(i64 1, ptr %9) #12
  %90 = load ptr, ptr %2, align 8, !tbaa !28
  %91 = getelementptr inbounds nuw %struct.pathspec, ptr %90, i32 0, i32 4
  %92 = load ptr, ptr %91, align 8, !tbaa !30
  %93 = load i32, ptr %3, align 4, !tbaa !16
  %94 = sext i32 %93 to i64
  %95 = getelementptr inbounds %struct.pathspec_item, ptr %92, i64 %94
  %96 = getelementptr inbounds nuw %struct.pathspec_item, ptr %95, i32 0, i32 0
  %97 = load ptr, ptr %96, align 8, !tbaa !32
  %98 = load i64, ptr %5, align 8, !tbaa !19
  %99 = getelementptr inbounds nuw i8, ptr %97, i64 %98
  %100 = load i8, ptr %99, align 1, !tbaa !15
  store i8 %100, ptr %9, align 1, !tbaa !15
  %101 = load i8, ptr %9, align 1, !tbaa !15
  %102 = sext i8 %101 to i32
  %103 = load ptr, ptr %2, align 8, !tbaa !28
  %104 = getelementptr inbounds nuw %struct.pathspec, ptr %103, i32 0, i32 4
  %105 = load ptr, ptr %104, align 8, !tbaa !30
  %106 = getelementptr inbounds %struct.pathspec_item, ptr %105, i64 0
  %107 = getelementptr inbounds nuw %struct.pathspec_item, ptr %106, i32 0, i32 0
  %108 = load ptr, ptr %107, align 8, !tbaa !32
  %109 = load i64, ptr %5, align 8, !tbaa !19
  %110 = getelementptr inbounds nuw i8, ptr %108, i64 %109
  %111 = load i8, ptr %110, align 1, !tbaa !15
  %112 = sext i8 %111 to i32
  %113 = icmp ne i32 %102, %112
  br i1 %113, label %114, label %115

114:                                              ; preds = %89
  store i32 8, ptr %8, align 4
  br label %125

115:                                              ; preds = %89
  %116 = load i8, ptr %9, align 1, !tbaa !15
  %117 = sext i8 %116 to i32
  %118 = icmp eq i32 %117, 47
  br i1 %118, label %119, label %122

119:                                              ; preds = %115
  %120 = load i64, ptr %5, align 8, !tbaa !19
  %121 = add i64 %120, 1
  store i64 %121, ptr %6, align 8, !tbaa !19
  br label %122

122:                                              ; preds = %119, %115
  %123 = load i64, ptr %5, align 8, !tbaa !19
  %124 = add i64 %123, 1
  store i64 %124, ptr %5, align 8, !tbaa !19
  store i32 0, ptr %8, align 4
  br label %125

125:                                              ; preds = %122, %114
  call void @llvm.lifetime.end.p0(i64 1, ptr %9) #12
  %126 = load i32, ptr %8, align 4
  switch i32 %126, label %150 [
    i32 0, label %127
    i32 8, label %128
  ]

127:                                              ; preds = %125
  br label %74, !llvm.loop !37

128:                                              ; preds = %125, %87
  %129 = load i32, ptr %3, align 4, !tbaa !16
  %130 = icmp eq i32 %129, 0
  br i1 %130, label %135, label %131

131:                                              ; preds = %128
  %132 = load i64, ptr %6, align 8, !tbaa !19
  %133 = load i64, ptr %4, align 8, !tbaa !19
  %134 = icmp ult i64 %132, %133
  br i1 %134, label %135, label %141

135:                                              ; preds = %131, %128
  %136 = load i64, ptr %6, align 8, !tbaa !19
  store i64 %136, ptr %4, align 8, !tbaa !19
  %137 = load i64, ptr %4, align 8, !tbaa !19
  %138 = icmp ne i64 %137, 0
  br i1 %138, label %140, label %139

139:                                              ; preds = %135
  store i32 4, ptr %8, align 4
  br label %142

140:                                              ; preds = %135
  br label %141

141:                                              ; preds = %140, %131
  store i32 0, ptr %8, align 4
  br label %142

142:                                              ; preds = %141, %139, %41
  call void @llvm.lifetime.end.p0(i64 8, ptr %7) #12
  call void @llvm.lifetime.end.p0(i64 8, ptr %6) #12
  call void @llvm.lifetime.end.p0(i64 8, ptr %5) #12
  %143 = load i32, ptr %8, align 4
  switch i32 %143, label %150 [
    i32 0, label %144
    i32 6, label %145
    i32 4, label %148
  ]

144:                                              ; preds = %142
  br label %145

145:                                              ; preds = %144, %142
  %146 = load i32, ptr %3, align 4, !tbaa !16
  %147 = add nsw i32 %146, 1
  store i32 %147, ptr %3, align 4, !tbaa !16
  br label %24, !llvm.loop !38

148:                                              ; preds = %142, %24
  %149 = load i64, ptr %4, align 8, !tbaa !19
  store i32 1, ptr %8, align 4
  call void @llvm.lifetime.end.p0(i64 8, ptr %4) #12
  call void @llvm.lifetime.end.p0(i64 4, ptr %3) #12
  ret i64 %149

150:                                              ; preds = %142, %125
  unreachable
}