; Function Attrs: nounwind uwtable
define internal fastcc i64 @common_prefix_len(ptr noundef readonly captures(none) %0) unnamed_addr #0 {
  %2 = getelementptr inbounds nuw i8, ptr %0, i64 8
  %3 = load i32, ptr %2, align 8, !tbaa !23
  %4 = and i32 %3, -128
  %.not = icmp eq i32 %4, 0
  br i1 %.not, label %.preheader, label %9

.preheader:                                       ; preds = %1
  %5 = load i32, ptr %0, align 8, !tbaa !24
  %6 = icmp sgt i32 %5, 0
  br i1 %6, label %.lr.ph, label %._crit_edge

.lr.ph:                                           ; preds = %.preheader
  %7 = getelementptr inbounds nuw i8, ptr %0, i64 16
  %8 = load ptr, ptr %7, align 8, !tbaa !19
  %wide.trip.count = zext nneg i32 %5 to i64
  br label %10

9:                                                ; preds = %1
  tail call void (ptr, i32, ptr, ...) @BUG_fl(ptr noundef nonnull @.str, i32 noundef 207, ptr noundef nonnull @.str.30, i32 noundef %4) #29
  unreachable

10:                                               ; preds = %.lr.ph, %.thread
  %indvars.iv = phi i64 [ 0, %.lr.ph ], [ %indvars.iv.next, %.thread ]
  %.04057 = phi i64 [ 0, %.lr.ph ], [ %.24256, %.thread ]
  %11 = freeze i64 %.04057
  %12 = getelementptr inbounds nuw %struct.pathspec_item, ptr %8, i64 %indvars.iv
  %13 = getelementptr inbounds nuw i8, ptr %12, i64 16
  %14 = load i32, ptr %13, align 8, !tbaa !12
  %15 = and i32 %14, 32
  %.not46 = icmp eq i32 %15, 0
  br i1 %.not46, label %16, label %.thread

16:                                               ; preds = %10
  %17 = and i32 %14, 16
  %.not47 = icmp eq i32 %17, 0
  %.035.in.in.v = select i1 %.not47, i64 28, i64 24
  %.035.in.in = getelementptr inbounds nuw i8, ptr %12, i64 %.035.in.in.v
  %.035.in = load i32, ptr %.035.in.in, align 4, !tbaa !10
  %.035 = sext i32 %.035.in to i64
  %18 = icmp eq i64 %indvars.iv, 0
  br i1 %18, label %.split.us, label %.split.preheader

.split.preheader:                                 ; preds = %16
  %umin = tail call i64 @llvm.umin.i64(i64 %11, i64 %.035)
  br label %.split

.split.us:                                        ; preds = %16, %19
  %.038.us = phi i64 [ %27, %19 ], [ 0, %16 ]
  %.036.us = phi i64 [ %spec.select.us, %19 ], [ 0, %16 ]
  %exitcond63.not = icmp eq i64 %.038.us, %.035
  br i1 %exitcond63.not, label %.critedge, label %19

19:                                               ; preds = %.split.us
  %20 = load ptr, ptr %12, align 8, !tbaa !22
  %21 = getelementptr inbounds nuw i8, ptr %20, i64 %.038.us
  %22 = load i8, ptr %21, align 1, !tbaa !4
  %23 = load ptr, ptr %8, align 8, !tbaa !22
  %24 = getelementptr inbounds nuw i8, ptr %23, i64 %.038.us
  %25 = load i8, ptr %24, align 1, !tbaa !4
  %.not48.us = icmp eq i8 %22, %25
  %26 = icmp eq i8 %22, 47
  %27 = add i64 %.038.us, 1
  %spec.select.us = select i1 %26, i64 %27, i64 %.036.us
  br i1 %.not48.us, label %.split.us, label %.critedge

.split:                                           ; preds = %.split.preheader, %28
  %.038 = phi i64 [ %36, %28 ], [ 0, %.split.preheader ]
  %.036 = phi i64 [ %spec.select, %28 ], [ 0, %.split.preheader ]
  %exitcond.not = icmp eq i64 %.038, %umin
  br i1 %exitcond.not, label %.critedge, label %28

28:                                               ; preds = %.split
  %29 = load ptr, ptr %12, align 8, !tbaa !22
  %30 = getelementptr inbounds nuw i8, ptr %29, i64 %.038
  %31 = load i8, ptr %30, align 1, !tbaa !4
  %32 = load ptr, ptr %8, align 8, !tbaa !22
  %33 = getelementptr inbounds nuw i8, ptr %32, i64 %.038
  %34 = load i8, ptr %33, align 1, !tbaa !4
  %.not48 = icmp eq i8 %31, %34
  %35 = icmp eq i8 %31, 47
  %36 = add i64 %.038, 1
  %spec.select = select i1 %35, i64 %36, i64 %.036
  br i1 %.not48, label %.split, label %.critedge

.critedge:                                        ; preds = %.split, %28, %.split.us, %19
  %.us-phi = phi i64 [ %.036.us, %19 ], [ %.036.us, %.split.us ], [ %.036, %28 ], [ %.036, %.split ]
  %37 = icmp ult i64 %.us-phi, %11
  %or.cond = select i1 %18, i1 true, i1 %37
  br i1 %or.cond, label %38, label %.thread

38:                                               ; preds = %.critedge
  %.not49 = icmp eq i64 %.us-phi, 0
  br i1 %.not49, label %._crit_edge, label %.thread

.thread:                                          ; preds = %.critedge, %10, %38
  %.24256 = phi i64 [ %.us-phi, %38 ], [ %11, %10 ], [ %11, %.critedge ]
  %indvars.iv.next = add nuw nsw i64 %indvars.iv, 1
  %exitcond65.not = icmp eq i64 %indvars.iv.next, %wide.trip.count
  br i1 %exitcond65.not, label %._crit_edge, label %10, !llvm.loop !25

._crit_edge:                                      ; preds = %.thread, %38, %.preheader
  %.141 = phi i64 [ 0, %.preheader ], [ 0, %38 ], [ %.24256, %.thread ]
  ret i64 %.141
}